target datalayout = "e-m:e-p270:32:32-p271:32:32-p272:64:64-i64:64-i128:128-f80:128-n8:16:32:64-S128"
target triple = "x86_64-pc-linux-gnu"

%union.PJ_COORD = type { [4 x double] }
%struct.PJconsts = type { ptr, ptr, ptr, ptr, ptr, ptr, ptr, ptr, ptr, ptr, ptr, ptr, i32, ptr, ptr, ptr, ptr, ptr, ptr, ptr, ptr, double, double, double, double, double, double, double, double, double, double, double, double, double, double, double, double, double, double, double, double, double, double, i32, i32, i32, i32, i32, i32, i32, i32, i32, i32, i32, ptr, ptr, ptr, ptr, ptr, ptr, double, double, double, double, double, double, double, double, double, double, double, i32, [7 x double], i32, ptr, ptr, double, double, i32, [4 x i8], %"class.std::shared_ptr", i8, double, i8, %"class.std::__cxx11::basic_string", %"class.std::__cxx11::basic_string", %"class.std::__cxx11::basic_string", i8, %"class.std::vector", i32, %"class.std::vector.3", i32, i8, i8, i8, ptr }
%"class.std::shared_ptr" = type { %"class.std::__shared_ptr" }
%"class.std::__shared_ptr" = type { ptr, %"class.std::__shared_count" }
%"class.std::__shared_count" = type { ptr }
%"class.std::__cxx11::basic_string" = type { %"struct.std::__cxx11::basic_string<char>::_Alloc_hider", i64, %union.anon }
%"struct.std::__cxx11::basic_string<char>::_Alloc_hider" = type { ptr }
%union.anon = type { i64, [8 x i8] }
%"class.std::vector" = type { %"struct.std::_Vector_base" }
%"struct.std::_Vector_base" = type { %"struct.std::_Vector_base<osgeo::proj::operation::GridDescription, std::allocator<osgeo::proj::operation::GridDescription>>::_Vector_impl" }
%"struct.std::_Vector_base<osgeo::proj::operation::GridDescription, std::allocator<osgeo::proj::operation::GridDescription>>::_Vector_impl" = type { %"struct.std::_Vector_base<osgeo::proj::operation::GridDescription, std::allocator<osgeo::proj::operation::GridDescription>>::_Vector_impl_data" }
%"struct.std::_Vector_base<osgeo::proj::operation::GridDescription, std::allocator<osgeo::proj::operation::GridDescription>>::_Vector_impl_data" = type { ptr, ptr, ptr }
%"class.std::vector.3" = type { %"struct.std::_Vector_base.4" }
%"struct.std::_Vector_base.4" = type { %"struct.std::_Vector_base<PJCoordOperation, std::allocator<PJCoordOperation>>::_Vector_impl" }
%"struct.std::_Vector_base<PJCoordOperation, std::allocator<PJCoordOperation>>::_Vector_impl" = type { %"struct.std::_Vector_base<PJCoordOperation, std::allocator<PJCoordOperation>>::_Vector_impl_data" }
%"struct.std::_Vector_base<PJCoordOperation, std::allocator<PJCoordOperation>>::_Vector_impl_data" = type { ptr, ptr, ptr }
%struct.PJ_LPZ = type { double, double, double }

; Function Attrs: mustprogress uwtable
define double @proj_lp_dist(ptr noundef %0, ptr noundef byval(%union.PJ_COORD) align 8 %1, ptr noundef byval(%union.PJ_COORD) align 8 %2) #0 {
  %4 = alloca double, align 8
  %5 = alloca ptr, align 8
  %6 = alloca double, align 8
  %7 = alloca double, align 8
  %8 = alloca double, align 8
  %9 = alloca i32, align 4
  store ptr %0, ptr %5, align 8, !tbaa !3
  call void @llvm.lifetime.start.p0(i64 8, ptr %6) #6
  call void @llvm.lifetime.start.p0(i64 8, ptr %7) #6
  call void @llvm.lifetime.start.p0(i64 8, ptr %8) #6
  %10 = load ptr, ptr %5, align 8, !tbaa !3
  %11 = getelementptr inbounds nuw %struct.PJconsts, ptr %10, i32 0, i32 10
  %12 = load ptr, ptr %11, align 8, !tbaa !8
  %13 = icmp ne ptr %12, null
  br i1 %13, label %15, label %14

14:                                               ; preds = %3
  store double 0x7FF0000000000000, ptr %4, align 8
  store i32 1, ptr %9, align 4
  br label %36

15:                                               ; preds = %3
  %16 = load ptr, ptr %5, align 8, !tbaa !3
  %17 = getelementptr inbounds nuw %struct.PJconsts, ptr %16, i32 0, i32 10
  %18 = load ptr, ptr %17, align 8, !tbaa !8
  %19 = getelementptr inbounds nuw %struct.PJ_LPZ, ptr %1, i32 0, i32 1
  %20 = load double, ptr %19, align 8, !tbaa !37
  %21 = fmul double %20, 1.800000e+02
  %22 = fdiv double %21, 0x400921FB54442D18
  %23 = getelementptr inbounds nuw %struct.PJ_LPZ, ptr %1, i32 0, i32 0
  %24 = load double, ptr %23, align 8, !tbaa !37
  %25 = fmul double %24, 1.800000e+02
  %26 = fdiv double %25, 0x400921FB54442D18
  %27 = getelementptr inbounds nuw %struct.PJ_LPZ, ptr %2, i32 0, i32 1
  %28 = load double, ptr %27, align 8, !tbaa !37
  %29 = fmul double %28, 1.800000e+02
  %30 = fdiv double %29, 0x400921FB54442D18
  %31 = getelementptr inbounds nuw %struct.PJ_LPZ, ptr %2, i32 0, i32 0
  %32 = load double, ptr %31, align 8, !tbaa !37
  %33 = fmul double %32, 1.800000e+02
  %34 = fdiv double %33, 0x400921FB54442D18
  call void @geod_inverse(ptr noundef %18, double noundef %22, double noundef %26, double noundef %30, double noundef %34, ptr noundef %6, ptr noundef %7, ptr noundef %8)
  %35 = load double, ptr %6, align 8, !tbaa !39
  store double %35, ptr %4, align 8
  store i32 1, ptr %9, align 4
  br label %36

36:                                               ; preds = %15, %14
  call void @llvm.lifetime.end.p0(i64 8, ptr %8) #6
  call void @llvm.lifetime.end.p0(i64 8, ptr %7) #6
  call void @llvm.lifetime.end.p0(i64 8, ptr %6) #6
  %37 = load double, ptr %4, align 8
  ret double %37
}

; Function Attrs: mustprogress uwtable
define double @proj_lpz_dist(ptr noundef %0, ptr noundef byval(%union.PJ_COORD) align 8 %1, ptr noundef byval(%union.PJ_COORD) align 8 %2) #0 {
  %4 = alloca double, align 8
  %5 = alloca ptr, align 8
  %6 = alloca %union.PJ_COORD, align 8
  %7 = alloca %union.PJ_COORD, align 8
  store ptr %0, ptr %5, align 8, !tbaa !3
  %8 = getelementptr inbounds nuw %struct.PJ_LPZ, ptr %1, i32 0, i32 0
  %9 = load double, ptr %8, align 8, !tbaa !37
  %10 = fcmp oeq double 0x7FF0000000000000, %9
  br i1 %10, label %15, label %11

11:                                               ; preds = %3
  %12 = getelementptr inbounds nuw %struct.PJ_LPZ, ptr %2, i32 0, i32 0
  %13 = load double, ptr %12, align 8, !tbaa !37
  %14 = fcmp oeq double 0x7FF0000000000000, %13
  br i1 %14, label %15, label %16

15:                                               ; preds = %11, %3
  store double 0x7FF0000000000000, ptr %4, align 8
  br label %25

16:                                               ; preds = %11
  %17 = load ptr, ptr %5, align 8, !tbaa !3
  call void @llvm.memcpy.p0.p0.i64(ptr align 8 %6, ptr align 8 %1, i64 32, i1 false), !tbaa.struct !38
  call void @llvm.memcpy.p0.p0.i64(ptr align 8 %7, ptr align 8 %2, i64 32, i1 false), !tbaa.struct !38
  %18 = call double @proj_lp_dist(ptr noundef %17, ptr noundef byval(%union.PJ_COORD) align 8 %6, ptr noundef byval(%union.PJ_COORD) align 8 %7)
  %19 = getelementptr inbounds nuw %struct.PJ_LPZ, ptr %1, i32 0, i32 2
  %20 = load double, ptr %19, align 8, !tbaa !37
  %21 = getelementptr inbounds nuw %struct.PJ_LPZ, ptr %2, i32 0, i32 2
  %22 = load double, ptr %21, align 8, !tbaa !37
  %23 = fsub double %20, %22
  %24 = call double @hypot(double noundef %18, double noundef %23) #6, !tbaa !40
  store double %24, ptr %4, align 8
  br label %25

25:                                               ; preds = %16, %15
  %26 = load double, ptr %4, align 8
  ret double %26
}