; Function Attrs: mustprogress uwtable
define double @proj_lpz_dist(ptr noundef readonly captures(none) %0, ptr noundef readonly byval(%union.PJ_COORD) align 8 captures(none) %1, ptr noundef readonly byval(%union.PJ_COORD) align 8 captures(none) %2) local_unnamed_addr #0 {
  %4 = alloca double, align 8
  %5 = alloca double, align 8
  %6 = alloca double, align 8
  %7 = load double, ptr %1, align 8, !tbaa !36
  %8 = fcmp oeq double %7, 0x7FF0000000000000
  %9 = load double, ptr %2, align 8
  %10 = fcmp oeq double %9, 0x7FF0000000000000
  %or.cond = select i1 %8, i1 true, i1 %10
  br i1 %or.cond, label %28, label %11

11:                                               ; preds = %3
  %.sroa.04.sroa.2.0..sroa_idx = getelementptr inbounds nuw i8, ptr %1, i64 8
  %.sroa.04.sroa.2.0.copyload = load double, ptr %.sroa.04.sroa.2.0..sroa_idx, align 8
  %.sroa.04.sroa.3.0..sroa_idx = getelementptr inbounds nuw i8, ptr %1, i64 16
  %.sroa.0.sroa.2.0..sroa_idx = getelementptr inbounds nuw i8, ptr %2, i64 8
  %.sroa.0.sroa.2.0.copyload = load double, ptr %.sroa.0.sroa.2.0..sroa_idx, align 8
  %.sroa.0.sroa.3.0..sroa_idx = getelementptr inbounds nuw i8, ptr %2, i64 16
  call void @llvm.lifetime.start.p0(i64 8, ptr nonnull %4) #6
  call void @llvm.lifetime.start.p0(i64 8, ptr nonnull %5) #6
  call void @llvm.lifetime.start.p0(i64 8, ptr nonnull %6) #6
  %12 = getelementptr inbounds nuw i8, ptr %0, i64 80
  %13 = load ptr, ptr %12, align 8, !tbaa !3
  %.not.i = icmp eq ptr %13, null
  br i1 %.not.i, label %proj_lp_dist.exit, label %14

14:                                               ; preds = %11
  %15 = fmul double %.sroa.04.sroa.2.0.copyload, 1.800000e+02
  %16 = fdiv double %15, 0x400921FB54442D18
  %17 = fmul double %7, 1.800000e+02
  %18 = fdiv double %17, 0x400921FB54442D18
  %19 = fmul double %.sroa.0.sroa.2.0.copyload, 1.800000e+02
  %20 = fdiv double %19, 0x400921FB54442D18
  %21 = fmul double %9, 1.800000e+02
  %22 = fdiv double %21, 0x400921FB54442D18
  call void @geod_inverse(ptr noundef nonnull %13, double noundef %16, double noundef %18, double noundef %20, double noundef %22, ptr noundef nonnull %4, ptr noundef nonnull %5, ptr noundef nonnull %6)
  %23 = load double, ptr %4, align 8, !tbaa !38
  br label %proj_lp_dist.exit

proj_lp_dist.exit:                                ; preds = %11, %14
  %.0.i = phi double [ %23, %14 ], [ 0x7FF0000000000000, %11 ]
  call void @llvm.lifetime.end.p0(i64 8, ptr nonnull %6) #6
  call void @llvm.lifetime.end.p0(i64 8, ptr nonnull %5) #6
  call void @llvm.lifetime.end.p0(i64 8, ptr nonnull %4) #6
  %24 = load double, ptr %.sroa.04.sroa.3.0..sroa_idx, align 8, !tbaa !36
  %25 = load double, ptr %.sroa.0.sroa.3.0..sroa_idx, align 8, !tbaa !36
  %26 = fsub double %24, %25
  %27 = call double @hypot(double noundef %.0.i, double noundef %26) #6, !tbaa !39
  br label %28

28:                                               ; preds = %3, %proj_lp_dist.exit
  %.0 = phi double [ %27, %proj_lp_dist.exit ], [ 0x7FF0000000000000, %3 ]
  ret double %.0
}